; Function Attrs: nounwind uwtable
define void @b2WheelJoint_SetLimits(i64 %0, float noundef %1, float noundef %2) local_unnamed_addr #0 {
  %4 = tail call ptr @b2GetJointSimCheckType(i64 %0, i32 noundef 7) #10
  %5 = getelementptr inbounds nuw i8, ptr %4, i64 84
  %6 = load float, ptr %5, align 4, !tbaa !3
  %7 = fcmp une float %1, %6
  br i1 %7, label %12, label %8

8:                                                ; preds = %3
  %9 = getelementptr inbounds nuw i8, ptr %4, i64 88
  %10 = load float, ptr %9, align 4, !tbaa !3
  %11 = fcmp une float %2, %10
  br i1 %11, label %12, label %20

12:                                               ; preds = %8, %3
  %13 = fcmp olt float %1, %2
  %14 = select i1 %13, float %1, float %2
  store float %14, ptr %5, align 4, !tbaa !3
  %15 = fcmp ogt float %1, %2
  %16 = select i1 %15, float %1, float %2
  %17 = getelementptr inbounds nuw i8, ptr %4, i64 88
  store float %16, ptr %17, align 4, !tbaa !3
  %18 = getelementptr inbounds nuw i8, ptr %4, i64 68
  store float 0.000000e+00, ptr %18, align 4, !tbaa !3
  %19 = getelementptr inbounds nuw i8, ptr %4, i64 72
  store float 0.000000e+00, ptr %19, align 4, !tbaa !3
  br label %20

20:                                               ; preds = %12, %8
  ret void
}